target datalayout = "e-m:e-p270:32:32-p271:32:32-p272:64:64-i64:64-i128:128-f80:128-n8:16:32:64-S128"
target triple = "x86_64-pc-linux-gnu"

%struct._object = type { %union.anon, ptr }
%union.anon = type { i64 }
%struct.PyEvent = type { i8 }
%struct.PyMutex = type { i8 }
%struct.anon = type { i32, i32 }
%struct.bench_data_locks = type { i32, i32, i32, [200 x i8], ptr, %struct.PyMutex, double, i64 }
%struct.bench_thread_data = type { ptr, i64, %struct.PyEvent }
%struct.PyListObject = type { %struct.PyVarObject, ptr, i64 }
%struct.PyVarObject = type { %struct._object, i64 }
%struct._typeobject = type { %struct.PyVarObject, ptr, i64, i64, ptr, i64, ptr, ptr, ptr, ptr, ptr, ptr, ptr, ptr, ptr, ptr, ptr, ptr, ptr, i64, ptr, ptr, ptr, ptr, i64, ptr, ptr, ptr, ptr, ptr, ptr, ptr, ptr, ptr, i64, ptr, ptr, ptr, ptr, ptr, ptr, ptr, ptr, ptr, ptr, ptr, i32, ptr, ptr, i8, i16 }

@.str.11 = private unnamed_addr constant [49 x i8] c"../cpython/Modules/_testinternalcapi/test_lock.c\00", align 1
@.str.21 = private unnamed_addr constant [13 x i8] c"end != start\00", align 1
@__PRETTY_FUNCTION__._testinternalcapi_benchmark_locks_impl = private unnamed_addr constant [88 x i8] c"PyObject *_testinternalcapi_benchmark_locks_impl(PyObject *, Py_ssize_t, int, int, int)\00", align 1
@.str.22 = private unnamed_addr constant [5 x i8] c"(dO)\00", align 1
@.str.23 = private unnamed_addr constant [17 x i8] c"PyList_Check(op)\00", align 1
@.str.24 = private unnamed_addr constant [40 x i8] c"../cpython/Include/cpython/listobject.h\00", align 1
@__PRETTY_FUNCTION__.PyList_SET_ITEM = private unnamed_addr constant [57 x i8] c"void PyList_SET_ITEM(PyObject *, Py_ssize_t, PyObject *)\00", align 1
@.str.25 = private unnamed_addr constant [11 x i8] c"0 <= index\00", align 1
@.str.26 = private unnamed_addr constant [24 x i8] c"index < list->allocated\00", align 1

; Function Attrs: alwaysinline nounwind uwtable
define internal i32 @_Py_IsImmortal(ptr noundef %0) #6 {
  %2 = alloca ptr, align 8
  store ptr %0, ptr %2, align 8, !tbaa !3
  %3 = load ptr, ptr %2, align 8, !tbaa !3
  %4 = getelementptr inbounds nuw %struct._object, ptr %3, i32 0, i32 0
  %5 = getelementptr inbounds nuw %struct.anon, ptr %4, i32 0, i32 0
  %6 = load i32, ptr %5, align 8, !tbaa !15
  %7 = icmp slt i32 %6, 0
  %8 = zext i1 %7 to i32
  ret i32 %8
}

; Function Attrs: alwaysinline nounwind uwtable
define internal void @Py_DECREF(ptr noundef %0) #6 {
  %2 = alloca ptr, align 8
  store ptr %0, ptr %2, align 8, !tbaa !3
  %3 = load ptr, ptr %2, align 8, !tbaa !3
  %4 = call i32 @_Py_IsImmortal(ptr noundef %3)
  %5 = icmp ne i32 %4, 0
  br i1 %5, label %6, label %7

6:                                                ; preds = %1
  br label %16

7:                                                ; preds = %1
  %8 = load ptr, ptr %2, align 8, !tbaa !3
  %9 = getelementptr inbounds nuw %struct._object, ptr %8, i32 0, i32 0
  %10 = getelementptr inbounds nuw %struct.anon, ptr %9, i32 0, i32 0
  %11 = load i32, ptr %10, align 8, !tbaa !15
  %12 = add i32 %11, -1
  store i32 %12, ptr %10, align 8, !tbaa !15
  %13 = icmp eq i32 %12, 0
  br i1 %13, label %14, label %16

14:                                               ; preds = %7
  %15 = load ptr, ptr %2, align 8, !tbaa !3
  call void @_Py_Dealloc(ptr noundef %15)
  br label %16

16:                                               ; preds = %6, %14, %7
  ret void
}

; Function Attrs: inlinehint nounwind uwtable
define internal i32 @PyType_HasFeature(ptr noundef %0, i64 noundef %1) #4 {
  %3 = alloca ptr, align 8
  %4 = alloca i64, align 8
  %5 = alloca i64, align 8
  store ptr %0, ptr %3, align 8, !tbaa !86
  store i64 %1, ptr %4, align 8, !tbaa !18
  call void @llvm.lifetime.start.p0(i64 8, ptr %5) #8
  %6 = load ptr, ptr %3, align 8, !tbaa !86
  %7 = getelementptr inbounds nuw %struct._typeobject, ptr %6, i32 0, i32 19
  %8 = load i64, ptr %7, align 8, !tbaa !87
  store i64 %8, ptr %5, align 8, !tbaa !18
  %9 = load i64, ptr %5, align 8, !tbaa !18
  %10 = load i64, ptr %4, align 8, !tbaa !18
  %11 = and i64 %9, %10
  %12 = icmp ne i64 %11, 0
  %13 = zext i1 %12 to i32
  call void @llvm.lifetime.end.p0(i64 8, ptr %5) #8
  ret i32 %13
}

; Function Attrs: inlinehint nounwind uwtable
define internal ptr @_Py_TYPE(ptr noundef %0) #4 {
  %2 = alloca ptr, align 8
  store ptr %0, ptr %2, align 8, !tbaa !3
  %3 = load ptr, ptr %2, align 8, !tbaa !3
  %4 = getelementptr inbounds nuw %struct._object, ptr %3, i32 0, i32 1
  %5 = load ptr, ptr %4, align 8, !tbaa !93
  ret ptr %5
}

; Function Attrs: inlinehint nounwind uwtable
define internal void @Py_XDECREF(ptr noundef %0) #4 {
  %2 = alloca ptr, align 8
  store ptr %0, ptr %2, align 8, !tbaa !3
  %3 = load ptr, ptr %2, align 8, !tbaa !3
  %4 = icmp ne ptr %3, null
  br i1 %4, label %5, label %7

5:                                                ; preds = %1
  %6 = load ptr, ptr %2, align 8, !tbaa !3
  call void @Py_DECREF(ptr noundef %6)
  br label %7

7:                                                ; preds = %5, %1
  ret void
}

; Function Attrs: inlinehint nounwind uwtable
define internal void @PyList_SET_ITEM(ptr noundef %0, i64 noundef %1, ptr noundef %2) #4 {
  %4 = alloca ptr, align 8
  %5 = alloca i64, align 8
  %6 = alloca ptr, align 8
  %7 = alloca ptr, align 8
  store ptr %0, ptr %4, align 8, !tbaa !3
  store i64 %1, ptr %5, align 8, !tbaa !18
  store ptr %2, ptr %6, align 8, !tbaa !3
  call void @llvm.lifetime.start.p0(i64 8, ptr %7) #8
  %8 = load ptr, ptr %4, align 8, !tbaa !3
  %9 = call ptr @_Py_TYPE(ptr noundef %8)
  %10 = call i32 @PyType_HasFeature(ptr noundef %9, i64 noundef 33554432)
  %11 = icmp ne i32 %10, 0
  br i1 %11, label %12, label %13

12:                                               ; preds = %3
  br label %15

13:                                               ; preds = %3
  call void @__assert_fail(ptr noundef @.str.23, ptr noundef @.str.24, i32 noundef 44, ptr noundef @__PRETTY_FUNCTION__.PyList_SET_ITEM) #9
  unreachable

14:                                               ; No predecessors!
  br label %15

15:                                               ; preds = %14, %12
  %16 = load ptr, ptr %4, align 8, !tbaa !3
  store ptr %16, ptr %7, align 8, !tbaa !47
  %17 = load i64, ptr %5, align 8, !tbaa !18
  %18 = icmp sle i64 0, %17
  br i1 %18, label %19, label %20

19:                                               ; preds = %15
  br label %22

20:                                               ; preds = %15
  call void @__assert_fail(ptr noundef @.str.25, ptr noundef @.str.24, i32 noundef 45, ptr noundef @__PRETTY_FUNCTION__.PyList_SET_ITEM) #9
  unreachable

21:                                               ; No predecessors!
  br label %22

22:                                               ; preds = %21, %19
  %23 = load i64, ptr %5, align 8, !tbaa !18
  %24 = load ptr, ptr %7, align 8, !tbaa !47
  %25 = getelementptr inbounds nuw %struct.PyListObject, ptr %24, i32 0, i32 2
  %26 = load i64, ptr %25, align 8, !tbaa !78
  %27 = icmp slt i64 %23, %26
  br i1 %27, label %28, label %29

28:                                               ; preds = %22
  br label %31

29:                                               ; preds = %22
  call void @__assert_fail(ptr noundef @.str.26, ptr noundef @.str.24, i32 noundef 46, ptr noundef @__PRETTY_FUNCTION__.PyList_SET_ITEM) #9
  unreachable

30:                                               ; No predecessors!
  br label %31

31:                                               ; preds = %30, %28
  %32 = load ptr, ptr %6, align 8, !tbaa !3
  %33 = load ptr, ptr %7, align 8, !tbaa !47
  %34 = getelementptr inbounds nuw %struct.PyListObject, ptr %33, i32 0, i32 1
  %35 = load ptr, ptr %34, align 8, !tbaa !83
  %36 = load i64, ptr %5, align 8, !tbaa !18
  %37 = getelementptr ptr, ptr %35, i64 %36
  store ptr %32, ptr %37, align 8, !tbaa !3
  call void @llvm.lifetime.end.p0(i64 8, ptr %7) #8
  ret void
}

; Function Attrs: inlinehint nounwind uwtable
define internal void @_Py_atomic_store_int(ptr noundef %0, i32 noundef %1) #4 {
  %3 = alloca ptr, align 8
  %4 = alloca i32, align 4
  %5 = alloca i32, align 4
  store ptr %0, ptr %3, align 8, !tbaa !50
  store i32 %1, ptr %4, align 4, !tbaa !14
  %6 = load ptr, ptr %3, align 8, !tbaa !50
  %7 = load i32, ptr %4, align 4, !tbaa !14
  store i32 %7, ptr %5, align 4, !tbaa !14
  %8 = load i32, ptr %5, align 4
  store atomic i32 %8, ptr %6 seq_cst, align 4
  ret void
}

; Function Attrs: nounwind uwtable
define internal void @pysleep(i32 noundef %0) #0 {
  %2 = alloca i32, align 4
  store i32 %0, ptr %2, align 4, !tbaa !14
  %3 = load i32, ptr %2, align 4, !tbaa !14
  %4 = mul i32 %3, 1000
  %5 = call i32 @usleep(i32 noundef %4)
  ret void
}

; Function Attrs: nounwind uwtable
define internal ptr @_testinternalcapi_benchmark_locks_impl(ptr noundef %0, i64 noundef %1, i32 noundef %2, i32 noundef %3, i32 noundef %4) #0 {
  %6 = alloca ptr, align 8
  %7 = alloca ptr, align 8
  %8 = alloca i64, align 8
  %9 = alloca i32, align 4
  %10 = alloca i32, align 4
  %11 = alloca i32, align 4
  %12 = alloca ptr, align 8
  %13 = alloca ptr, align 8
  %14 = alloca %struct.bench_data_locks, align 8
  %15 = alloca i32, align 4
  %16 = alloca ptr, align 8
  %17 = alloca i64, align 8
  %18 = alloca i64, align 8
  %19 = alloca i64, align 8
  %20 = alloca i64, align 8
  %21 = alloca i64, align 8
  %22 = alloca i64, align 8
  %23 = alloca ptr, align 8
  %24 = alloca double, align 8
  store ptr %0, ptr %7, align 8, !tbaa !3
  store i64 %1, ptr %8, align 8, !tbaa !18
  store i32 %2, ptr %9, align 4, !tbaa !14
  store i32 %3, ptr %10, align 4, !tbaa !14
  store i32 %4, ptr %11, align 4, !tbaa !14
  call void @llvm.lifetime.start.p0(i64 8, ptr %12) #8
  store ptr null, ptr %12, align 8, !tbaa !3
  call void @llvm.lifetime.start.p0(i64 8, ptr %13) #8
  store ptr null, ptr %13, align 8, !tbaa !3
  call void @llvm.lifetime.start.p0(i64 248, ptr %14) #8
  call void @llvm.memset.p0.i64(ptr align 8 %14, i8 0, i64 248, i1 false)
  %25 = load i32, ptr %9, align 4, !tbaa !14
  %26 = getelementptr inbounds nuw %struct.bench_data_locks, ptr %14, i32 0, i32 1
  store i32 %25, ptr %26, align 4, !tbaa !57
  %27 = load i32, ptr %10, align 4, !tbaa !14
  %28 = getelementptr inbounds nuw %struct.bench_data_locks, ptr %14, i32 0, i32 2
  store i32 %27, ptr %28, align 8, !tbaa !60
  %29 = call ptr @PyThread_allocate_lock()
  %30 = getelementptr inbounds nuw %struct.bench_data_locks, ptr %14, i32 0, i32 4
  store ptr %29, ptr %30, align 8, !tbaa !61
  %31 = getelementptr inbounds nuw %struct.bench_data_locks, ptr %14, i32 0, i32 4
  %32 = load ptr, ptr %31, align 8, !tbaa !61
  %33 = icmp eq ptr %32, null
  br i1 %33, label %34, label %36

34:                                               ; preds = %5
  %35 = call ptr @PyErr_NoMemory()
  store ptr %35, ptr %6, align 8
  store i32 1, ptr %15, align 4
  br label %147

36:                                               ; preds = %5
  call void @llvm.lifetime.start.p0(i64 8, ptr %16) #8
  store ptr null, ptr %16, align 8, !tbaa !62
  %37 = load i64, ptr %8, align 8, !tbaa !18
  %38 = call ptr @PyMem_Calloc(i64 noundef %37, i64 noundef 24)
  store ptr %38, ptr %16, align 8, !tbaa !62
  %39 = load ptr, ptr %16, align 8, !tbaa !62
  %40 = icmp eq ptr %39, null
  br i1 %40, label %41, label %43

41:                                               ; preds = %36
  %42 = call ptr @PyErr_NoMemory()
  br label %140

43:                                               ; preds = %36
  %44 = load i64, ptr %8, align 8, !tbaa !18
  %45 = call ptr @PyList_New(i64 noundef %44)
  store ptr %45, ptr %12, align 8, !tbaa !3
  %46 = load ptr, ptr %12, align 8, !tbaa !3
  %47 = icmp eq ptr %46, null
  br i1 %47, label %48, label %49

48:                                               ; preds = %43
  br label %140

49:                                               ; preds = %43
  %50 = call i32 @PyTime_PerfCounter(ptr noundef %17)
  %51 = icmp slt i32 %50, 0
  br i1 %51, label %52, label %53

52:                                               ; preds = %49
  br label %140

53:                                               ; preds = %49
  call void @llvm.lifetime.start.p0(i64 8, ptr %19) #8
  store i64 0, ptr %19, align 8, !tbaa !18
  br label %54

54:                                               ; preds = %68, %53
  %55 = load i64, ptr %19, align 8, !tbaa !18
  %56 = load i64, ptr %8, align 8, !tbaa !18
  %57 = icmp slt i64 %55, %56
  br i1 %57, label %59, label %58

58:                                               ; preds = %54
  store i32 3, ptr %15, align 4
  call void @llvm.lifetime.end.p0(i64 8, ptr %19) #8
  br label %71

59:                                               ; preds = %54
  %60 = load ptr, ptr %16, align 8, !tbaa !62
  %61 = load i64, ptr %19, align 8, !tbaa !18
  %62 = getelementptr %struct.bench_thread_data, ptr %60, i64 %61
  %63 = getelementptr inbounds nuw %struct.bench_thread_data, ptr %62, i32 0, i32 0
  store ptr %14, ptr %63, align 8, !tbaa !64
  %64 = load ptr, ptr %16, align 8, !tbaa !62
  %65 = load i64, ptr %19, align 8, !tbaa !18
  %66 = getelementptr %struct.bench_thread_data, ptr %64, i64 %65
  %67 = call i64 @PyThread_start_new_thread(ptr noundef @thread_benchmark_locks, ptr noundef %66)
  br label %68

68:                                               ; preds = %59
  %69 = load i64, ptr %19, align 8, !tbaa !18
  %70 = add i64 %69, 1
  store i64 %70, ptr %19, align 8, !tbaa !18
  br label %54, !llvm.loop !67

71:                                               ; preds = %58
  %72 = load i32, ptr %11, align 4, !tbaa !14
  call void @pysleep(i32 noundef %72)
  %73 = getelementptr inbounds nuw %struct.bench_data_locks, ptr %14, i32 0, i32 0
  call void @_Py_atomic_store_int(ptr noundef %73, i32 noundef 1)
  call void @llvm.lifetime.start.p0(i64 8, ptr %20) #8
  store i64 0, ptr %20, align 8, !tbaa !18
  br label %74

74:                                               ; preds = %84, %71
  %75 = load i64, ptr %20, align 8, !tbaa !18
  %76 = load i64, ptr %8, align 8, !tbaa !18
  %77 = icmp slt i64 %75, %76
  br i1 %77, label %79, label %78

78:                                               ; preds = %74
  store i32 6, ptr %15, align 4
  call void @llvm.lifetime.end.p0(i64 8, ptr %20) #8
  br label %87

79:                                               ; preds = %74
  %80 = load ptr, ptr %16, align 8, !tbaa !62
  %81 = load i64, ptr %20, align 8, !tbaa !18
  %82 = getelementptr %struct.bench_thread_data, ptr %80, i64 %81
  %83 = getelementptr inbounds nuw %struct.bench_thread_data, ptr %82, i32 0, i32 2
  call void @PyEvent_Wait(ptr noundef %83)
  br label %84

84:                                               ; preds = %79
  %85 = load i64, ptr %20, align 8, !tbaa !18
  %86 = add i64 %85, 1
  store i64 %86, ptr %20, align 8, !tbaa !18
  br label %74, !llvm.loop !68

87:                                               ; preds = %78
  %88 = getelementptr inbounds nuw %struct.bench_data_locks, ptr %14, i32 0, i32 7
  %89 = load i64, ptr %88, align 8, !tbaa !69
  store i64 %89, ptr %21, align 8, !tbaa !18
  %90 = call i32 @PyTime_PerfCounter(ptr noundef %18)
  %91 = icmp slt i32 %90, 0
  br i1 %91, label %92, label %93

92:                                               ; preds = %87
  br label %140

93:                                               ; preds = %87
  call void @llvm.lifetime.start.p0(i64 8, ptr %22) #8
  store i64 0, ptr %22, align 8, !tbaa !18
  br label %94

94:                                               ; preds = %116, %93
  %95 = load i64, ptr %22, align 8, !tbaa !18
  %96 = load i64, ptr %8, align 8, !tbaa !18
  %97 = icmp slt i64 %95, %96
  br i1 %97, label %99, label %98

98:                                               ; preds = %94
  store i32 9, ptr %15, align 4
  br label %119

99:                                               ; preds = %94
  call void @llvm.lifetime.start.p0(i64 8, ptr %23) #8
  %100 = load ptr, ptr %16, align 8, !tbaa !62
  %101 = load i64, ptr %22, align 8, !tbaa !18
  %102 = getelementptr %struct.bench_thread_data, ptr %100, i64 %101
  %103 = getelementptr inbounds nuw %struct.bench_thread_data, ptr %102, i32 0, i32 1
  %104 = load i64, ptr %103, align 8, !tbaa !70
  %105 = call ptr @PyLong_FromSsize_t(i64 noundef %104)
  store ptr %105, ptr %23, align 8, !tbaa !3
  %106 = load ptr, ptr %23, align 8, !tbaa !3
  %107 = icmp eq ptr %106, null
  br i1 %107, label %108, label %109

108:                                              ; preds = %99
  store i32 2, ptr %15, align 4
  br label %113

109:                                              ; preds = %99
  %110 = load ptr, ptr %12, align 8, !tbaa !3
  %111 = load i64, ptr %22, align 8, !tbaa !18
  %112 = load ptr, ptr %23, align 8, !tbaa !3
  call void @PyList_SET_ITEM(ptr noundef %110, i64 noundef %111, ptr noundef %112)
  store i32 0, ptr %15, align 4
  br label %113

113:                                              ; preds = %108, %109
  call void @llvm.lifetime.end.p0(i64 8, ptr %23) #8
  %114 = load i32, ptr %15, align 4
  switch i32 %114, label %119 [
    i32 0, label %115
  ]

115:                                              ; preds = %113
  br label %116

116:                                              ; preds = %115
  %117 = load i64, ptr %22, align 8, !tbaa !18
  %118 = add i64 %117, 1
  store i64 %118, ptr %22, align 8, !tbaa !18
  br label %94, !llvm.loop !71

119:                                              ; preds = %113, %98
  call void @llvm.lifetime.end.p0(i64 8, ptr %22) #8
  %120 = load i32, ptr %15, align 4
  switch i32 %120, label %146 [
    i32 9, label %121
    i32 2, label %140
  ]

121:                                              ; preds = %119
  %122 = load i64, ptr %18, align 8, !tbaa !18
  %123 = load i64, ptr %17, align 8, !tbaa !18
  %124 = icmp ne i64 %122, %123
  br i1 %124, label %125, label %126

125:                                              ; preds = %121
  br label %128

126:                                              ; preds = %121
  call void @__assert_fail(ptr noundef @.str.21, ptr noundef @.str.11, i32 noundef 327, ptr noundef @__PRETTY_FUNCTION__._testinternalcapi_benchmark_locks_impl) #9
  unreachable

127:                                              ; No predecessors!
  br label %128

128:                                              ; preds = %127, %125
  %129 = load i64, ptr %21, align 8, !tbaa !18
  %130 = sitofp i64 %129 to double
  %131 = fmul double %130, 1.000000e+09
  %132 = load i64, ptr %18, align 8, !tbaa !18
  %133 = load i64, ptr %17, align 8, !tbaa !18
  %134 = sub i64 %132, %133
  %135 = sitofp i64 %134 to double
  %136 = fdiv double %131, %135
  store double %136, ptr %24, align 8, !tbaa !72
  %137 = load double, ptr %24, align 8, !tbaa !72
  %138 = load ptr, ptr %12, align 8, !tbaa !3
  %139 = call ptr (ptr, ...) @Py_BuildValue(ptr noundef @.str.22, double noundef %137, ptr noundef %138)
  store ptr %139, ptr %13, align 8, !tbaa !3
  br label %140

140:                                              ; preds = %128, %119, %92, %52, %48, %41
  %141 = getelementptr inbounds nuw %struct.bench_data_locks, ptr %14, i32 0, i32 4
  %142 = load ptr, ptr %141, align 8, !tbaa !61
  call void @PyThread_free_lock(ptr noundef %142)
  %143 = load ptr, ptr %16, align 8, !tbaa !62
  call void @PyMem_Free(ptr noundef %143)
  %144 = load ptr, ptr %12, align 8, !tbaa !3
  call void @Py_XDECREF(ptr noundef %144)
  %145 = load ptr, ptr %13, align 8, !tbaa !3
  store ptr %145, ptr %6, align 8
  store i32 1, ptr %15, align 4
  br label %146

146:                                              ; preds = %140, %119
  call void @llvm.lifetime.end.p0(i64 8, ptr %16) #8
  br label %147

147:                                              ; preds = %146, %34
  call void @llvm.lifetime.end.p0(i64 248, ptr %14) #8
  call void @llvm.lifetime.end.p0(i64 8, ptr %13) #8
  call void @llvm.lifetime.end.p0(i64 8, ptr %12) #8
  %148 = load ptr, ptr %6, align 8
  ret ptr %148
}