; Function Attrs: nounwind uwtable
define internal fastcc ptr @_testinternalcapi_benchmark_locks_impl(i64 noundef %0, i32 noundef range(i32 0, -2147483648) %1, i32 noundef %2, i32 noundef %3) unnamed_addr #0 {
  %5 = alloca %struct.bench_data_locks, align 8
  %6 = alloca i64, align 8
  %7 = alloca i64, align 8
  call void @llvm.lifetime.start.p0(i64 248, ptr nonnull %5) #6
  call void @llvm.memset.p0.i64(ptr noundef nonnull align 8 dereferenceable(248) %5, i8 0, i64 248, i1 false)
  %8 = getelementptr inbounds nuw i8, ptr %5, i64 4
  store i32 %1, ptr %8, align 4, !tbaa !39
  %9 = getelementptr inbounds nuw i8, ptr %5, i64 8
  store i32 %2, ptr %9, align 8, !tbaa !42
  %10 = tail call ptr @PyThread_allocate_lock() #6
  %11 = getelementptr inbounds nuw i8, ptr %5, i64 216
  store ptr %10, ptr %11, align 8, !tbaa !43
  %12 = icmp eq ptr %10, null
  br i1 %12, label %13, label %15

13:                                               ; preds = %4
  %14 = tail call ptr @PyErr_NoMemory() #6
  br label %Py_XDECREF.exit

15:                                               ; preds = %4
  %16 = tail call ptr @PyMem_Calloc(i64 noundef %0, i64 noundef 24) #6
  %17 = icmp eq ptr %16, null
  br i1 %17, label %18, label %20

18:                                               ; preds = %15
  %19 = tail call ptr @PyErr_NoMemory() #6
  br label %.loopexit

20:                                               ; preds = %15
  %21 = tail call ptr @PyList_New(i64 noundef %0) #6
  %22 = icmp eq ptr %21, null
  br i1 %22, label %.loopexit, label %23

23:                                               ; preds = %20
  %24 = call i32 @PyTime_PerfCounter(ptr noundef nonnull %6) #6
  %25 = icmp slt i32 %24, 0
  br i1 %25, label %.loopexit, label %.preheader4

.preheader4:                                      ; preds = %23
  %26 = icmp sgt i64 %0, 0
  br i1 %26, label %.lr.ph, label %._crit_edge.thread

._crit_edge.thread:                               ; preds = %.preheader4
  %27 = mul i32 %3, 1000
  %28 = call i32 @usleep(i32 noundef %27) #6
  store atomic i32 1, ptr %5 seq_cst, align 8
  br label %._crit_edge9

._crit_edge:                                      ; preds = %.lr.ph
  %29 = mul i32 %3, 1000
  %30 = call i32 @usleep(i32 noundef %29) #6
  store atomic i32 1, ptr %5 seq_cst, align 8
  br label %.lr.ph8

.lr.ph:                                           ; preds = %.preheader4, %.lr.ph
  %.0405 = phi i64 [ %33, %.lr.ph ], [ 0, %.preheader4 ]
  %31 = getelementptr %struct.bench_thread_data, ptr %16, i64 %.0405
  store ptr %5, ptr %31, align 8, !tbaa !44
  %32 = call i64 @PyThread_start_new_thread(ptr noundef nonnull @thread_benchmark_locks, ptr noundef nonnull %31) #6
  %33 = add nuw nsw i64 %.0405, 1
  %exitcond.not = icmp eq i64 %33, %0
  br i1 %exitcond.not, label %._crit_edge, label %.lr.ph, !llvm.loop !47

._crit_edge9:                                     ; preds = %.lr.ph8, %._crit_edge.thread
  %34 = getelementptr inbounds nuw i8, ptr %5, i64 240
  %35 = load i64, ptr %34, align 8, !tbaa !48
  %36 = call i32 @PyTime_PerfCounter(ptr noundef nonnull %7) #6
  %37 = icmp slt i32 %36, 0
  br i1 %37, label %.loopexit, label %.preheader

.preheader:                                       ; preds = %._crit_edge9
  br i1 %26, label %.lr.ph11, label %._crit_edge12

.lr.ph11:                                         ; preds = %.preheader
  %38 = getelementptr i8, ptr %21, i64 8
  %39 = getelementptr inbounds nuw i8, ptr %21, i64 32
  %40 = getelementptr inbounds nuw i8, ptr %21, i64 24
  br label %43

.lr.ph8:                                          ; preds = %._crit_edge, %.lr.ph8
  %.0396 = phi i64 [ %42, %.lr.ph8 ], [ 0, %._crit_edge ]
  %41 = getelementptr %struct.bench_thread_data, ptr %16, i64 %.0396, i32 2
  call void @PyEvent_Wait(ptr noundef %41) #6
  %42 = add nuw nsw i64 %.0396, 1
  %exitcond13.not = icmp eq i64 %42, %0
  br i1 %exitcond13.not, label %._crit_edge9, label %.lr.ph8, !llvm.loop !49

43:                                               ; preds = %.lr.ph11, %55
  %.03710 = phi i64 [ 0, %.lr.ph11 ], [ %58, %55 ]
  %44 = getelementptr %struct.bench_thread_data, ptr %16, i64 %.03710, i32 1
  %45 = load i64, ptr %44, align 8, !tbaa !50
  %46 = call ptr @PyLong_FromSsize_t(i64 noundef %45) #6
  %.not = icmp eq ptr %46, null
  br i1 %.not, label %.loopexit, label %47

47:                                               ; preds = %43
  %.val.i = load ptr, ptr %38, align 8, !tbaa !51
  %48 = getelementptr i8, ptr %.val.i, i64 168
  %.val7.i = load i64, ptr %48, align 8, !tbaa !54
  %49 = and i64 %.val7.i, 33554432
  %.not.i = icmp eq i64 %49, 0
  br i1 %.not.i, label %50, label %51

50:                                               ; preds = %47
  call void @__assert_fail(ptr noundef nonnull @.str.23, ptr noundef nonnull @.str.24, i32 noundef 44, ptr noundef nonnull @__PRETTY_FUNCTION__.PyList_SET_ITEM) #7
  unreachable

51:                                               ; preds = %47
  %52 = load i64, ptr %39, align 8, !tbaa !62
  %53 = icmp slt i64 %.03710, %52
  br i1 %53, label %55, label %54

54:                                               ; preds = %51
  call void @__assert_fail(ptr noundef nonnull @.str.26, ptr noundef nonnull @.str.24, i32 noundef 46, ptr noundef nonnull @__PRETTY_FUNCTION__.PyList_SET_ITEM) #7
  unreachable

55:                                               ; preds = %51
  %56 = load ptr, ptr %40, align 8, !tbaa !65
  %57 = getelementptr ptr, ptr %56, i64 %.03710
  store ptr %46, ptr %57, align 8, !tbaa !24
  %58 = add nuw nsw i64 %.03710, 1
  %exitcond14.not = icmp eq i64 %58, %0
  br i1 %exitcond14.not, label %._crit_edge12, label %43, !llvm.loop !66

._crit_edge12:                                    ; preds = %55, %.preheader
  %59 = load i64, ptr %7, align 8, !tbaa !67
  %60 = load i64, ptr %6, align 8, !tbaa !67
  %.not50 = icmp eq i64 %59, %60
  br i1 %.not50, label %61, label %62

61:                                               ; preds = %._crit_edge12
  call void @__assert_fail(ptr noundef nonnull @.str.21, ptr noundef nonnull @.str.11, i32 noundef 327, ptr noundef nonnull @__PRETTY_FUNCTION__._testinternalcapi_benchmark_locks_impl) #7
  unreachable

62:                                               ; preds = %._crit_edge12
  %63 = sitofp i64 %35 to double
  %64 = fmul double %63, 1.000000e+09
  %65 = sub i64 %59, %60
  %66 = sitofp i64 %65 to double
  %67 = fdiv double %64, %66
  %68 = call ptr (ptr, ...) @Py_BuildValue(ptr noundef nonnull @.str.22, double noundef %67, ptr noundef nonnull %21) #6
  br label %.loopexit

.loopexit:                                        ; preds = %43, %._crit_edge9, %23, %20, %62, %18
  %.038 = phi ptr [ null, %18 ], [ null, %20 ], [ null, %23 ], [ null, %._crit_edge9 ], [ %68, %62 ], [ null, %43 ]
  %.036 = phi ptr [ null, %18 ], [ null, %20 ], [ %21, %23 ], [ %21, %._crit_edge9 ], [ %21, %62 ], [ %21, %43 ]
  %69 = load ptr, ptr %11, align 8, !tbaa !43
  call void @PyThread_free_lock(ptr noundef %69) #6
  call void @PyMem_Free(ptr noundef %16) #6
  %.not.i51 = icmp eq ptr %.036, null
  br i1 %.not.i51, label %Py_XDECREF.exit, label %70

70:                                               ; preds = %.loopexit
  %71 = load i32, ptr %.036, align 8, !tbaa !26
  %.not.i.i = icmp sgt i32 %71, -1
  br i1 %.not.i.i, label %72, label %Py_XDECREF.exit

72:                                               ; preds = %70
  %73 = add nsw i32 %71, -1
  store i32 %73, ptr %.036, align 8, !tbaa !26
  %74 = icmp eq i32 %73, 0
  br i1 %74, label %75, label %Py_XDECREF.exit

75:                                               ; preds = %72
  call void @_Py_Dealloc(ptr noundef nonnull %.036) #6
  br label %Py_XDECREF.exit

Py_XDECREF.exit:                                  ; preds = %75, %72, %70, %.loopexit, %13
  %.0 = phi ptr [ %14, %13 ], [ %.038, %.loopexit ], [ %.038, %70 ], [ %.038, %72 ], [ %.038, %75 ]
  call void @llvm.lifetime.end.p0(i64 248, ptr nonnull %5) #6
  ret ptr %.0
}